; Function Attrs: mustprogress uwtable
define void @_ZN4LIEF2PE18ResourceDialogItemC2ERKNS0_7details23pe_dialog_item_templateE(ptr noundef nonnull align 8 dereferenceable(106) %0, ptr nocapture noundef nonnull readonly align 1 dereferenceable(18) %1) unnamed_addr #2 align 2 personality ptr @__gxx_personality_v0 {
  tail call void @_ZN4LIEF6ObjectC2Ev(ptr noundef nonnull align 8 dereferenceable(8) %0)
  store ptr getelementptr inbounds ({ [7 x ptr] }, ptr @_ZTVN4LIEF2PE18ResourceDialogItemE, i64 0, i32 0, i64 2), ptr %0, align 8
  %3 = getelementptr inbounds i8, ptr %0, i64 8
  store i8 0, ptr %3, align 8
  %4 = getelementptr inbounds i8, ptr %0, i64 12
  store i32 0, ptr %4, align 4
  %5 = getelementptr inbounds i8, ptr %0, i64 16
  %6 = getelementptr inbounds i8, ptr %1, i64 4
  %7 = load i32, ptr %6, align 1
  store i32 %7, ptr %5, align 8
  %8 = getelementptr inbounds i8, ptr %0, i64 20
  %9 = load i32, ptr %1, align 1
  store i32 %9, ptr %8, align 4
  %10 = getelementptr inbounds i8, ptr %0, i64 24
  %11 = getelementptr inbounds i8, ptr %1, i64 16
  %12 = load i16, ptr %11, align 1
  %13 = zext i16 %12 to i32
  store i32 %13, ptr %10, align 8
  %14 = getelementptr inbounds i8, ptr %0, i64 28
  %15 = getelementptr inbounds i8, ptr %1, i64 8
  %16 = load i16, ptr %15, align 1
  store i16 %16, ptr %14, align 4
  %17 = getelementptr inbounds i8, ptr %0, i64 30
  %18 = getelementptr inbounds i8, ptr %1, i64 10
  %19 = load i16, ptr %18, align 1
  store i16 %19, ptr %17, align 2
  %20 = getelementptr inbounds i8, ptr %0, i64 32
  %21 = getelementptr inbounds i8, ptr %1, i64 12
  %22 = load i16, ptr %21, align 1
  store i16 %22, ptr %20, align 8
  %23 = getelementptr inbounds i8, ptr %0, i64 34
  %24 = getelementptr inbounds i8, ptr %1, i64 14
  %25 = load i16, ptr %24, align 1
  store i16 %25, ptr %23, align 2
  %26 = getelementptr inbounds i8, ptr %0, i64 40
  %27 = getelementptr inbounds i8, ptr %0, i64 56
  store ptr %27, ptr %26, align 8
  %28 = getelementptr inbounds i8, ptr %0, i64 48
  store i64 0, ptr %28, align 8
  store i16 0, ptr %27, align 8
  %29 = getelementptr inbounds i8, ptr %0, i64 72
  %30 = getelementptr inbounds i8, ptr %0, i64 88
  store ptr %30, ptr %29, align 8
  %31 = getelementptr inbounds i8, ptr %0, i64 80
  store i64 0, ptr %31, align 8
  store i16 0, ptr %30, align 8
  %32 = getelementptr inbounds i8, ptr %0, i64 104
  store i16 0, ptr %32, align 8
  ret void
}